; Function Attrs: mustprogress nofree nounwind willreturn memory(read, inaccessiblemem: none) uwtable
define i32 @Abc_NtkRecTruthCompare(ptr noundef readonly captures(none) %0, ptr noundef readonly captures(none) %1) #10 {
  %3 = load ptr, ptr @s_pMan3, align 8
  %4 = getelementptr inbounds nuw i8, ptr %3, i64 112
  %5 = load ptr, ptr %4, align 8
  %6 = load i32, ptr %0, align 4
  %7 = getelementptr i8, ptr %5, i64 8
  %.val7 = load ptr, ptr %7, align 8
  %8 = sext i32 %6 to i64
  %9 = getelementptr inbounds i8, ptr %.val7, i64 %8
  %10 = load i8, ptr %9, align 1
  %11 = sext i8 %10 to i32
  %12 = load i32, ptr %1, align 4
  %13 = sext i32 %12 to i64
  %14 = getelementptr inbounds i8, ptr %.val7, i64 %13
  %15 = load i8, ptr %14, align 1
  %16 = sext i8 %15 to i32
  %17 = sub nsw i32 %11, %16
  %.not = icmp eq i32 %17, 0
  br i1 %.not, label %18, label %49

18:                                               ; preds = %2
  %19 = getelementptr inbounds nuw i8, ptr %3, i64 32
  %20 = load ptr, ptr %19, align 8
  %21 = getelementptr inbounds nuw i8, ptr %20, i64 24
  %22 = load ptr, ptr %21, align 8
  %23 = getelementptr inbounds nuw i8, ptr %20, i64 8
  %24 = load i32, ptr %23, align 8
  %25 = ashr i32 %6, %24
  %26 = sext i32 %25 to i64
  %27 = getelementptr inbounds ptr, ptr %22, i64 %26
  %28 = load ptr, ptr %27, align 8
  %29 = load i32, ptr %20, align 8
  %30 = getelementptr inbounds nuw i8, ptr %20, i64 12
  %31 = load i32, ptr %30, align 4
  %32 = and i32 %31, %6
  %33 = mul nsw i32 %32, %29
  %34 = sext i32 %33 to i64
  %35 = getelementptr inbounds i64, ptr %28, i64 %34
  %36 = ashr i32 %12, %24
  %37 = sext i32 %36 to i64
  %38 = getelementptr inbounds ptr, ptr %22, i64 %37
  %39 = load ptr, ptr %38, align 8
  %40 = and i32 %31, %12
  %41 = mul nsw i32 %40, %29
  %42 = sext i32 %41 to i64
  %43 = getelementptr inbounds i64, ptr %39, i64 %42
  %44 = getelementptr inbounds nuw i8, ptr %3, i64 4
  %45 = load i32, ptr %44, align 4
  %46 = sext i32 %45 to i64
  %47 = shl nsw i64 %46, 3
  %48 = tail call i32 @memcmp(ptr noundef %35, ptr noundef %43, i64 noundef %47) #27
  br label %49

49:                                               ; preds = %2, %18
  %.0 = phi i32 [ %48, %18 ], [ %17, %2 ]
  ret i32 %.0
}